; Function Attrs: nounwind uwtable
define internal noundef ptr @nodeid_profile_uat_copy_cb(ptr noundef returned initializes((0, 8), (16, 17), (40, 48)) %0, ptr noundef readonly captures(none) %1, i64 %2) #2 {
  %4 = load ptr, ptr %1, align 8
  %5 = tail call noalias ptr @g_strdup(ptr noundef %4) #18
  store ptr %5, ptr %0, align 8
  %6 = getelementptr inbounds nuw i8, ptr %1, i64 40
  %7 = load ptr, ptr %6, align 8
  %8 = tail call noalias ptr @g_strdup(ptr noundef %7) #18
  %9 = getelementptr inbounds nuw i8, ptr %0, i64 40
  store ptr %8, ptr %9, align 8
  %10 = getelementptr inbounds nuw i8, ptr %1, i64 8
  %11 = load i8, ptr %10, align 8
  %12 = and i8 %11, 1
  %13 = getelementptr inbounds nuw i8, ptr %0, i64 8
  %14 = load i8, ptr %13, align 8
  %15 = and i8 %14, -2
  %16 = or disjoint i8 %15, %12
  store i8 %16, ptr %13, align 8
  %.not = icmp eq i8 %12, 0
  br i1 %.not, label %21, label %17

17:                                               ; preds = %3
  %18 = getelementptr inbounds nuw i8, ptr %1, i64 16
  %19 = load i8, ptr %18, align 8
  %20 = getelementptr inbounds nuw i8, ptr %0, i64 16
  store i8 %19, ptr %20, align 8
  br label %copy_address.exit

21:                                               ; preds = %3
  %22 = getelementptr inbounds nuw i8, ptr %0, i64 16
  %23 = getelementptr inbounds nuw i8, ptr %1, i64 16
  %24 = load i32, ptr %23, align 8
  %25 = getelementptr inbounds nuw i8, ptr %1, i64 20
  %26 = load i32, ptr %25, align 4
  %27 = getelementptr inbounds nuw i8, ptr %1, i64 24
  %28 = load ptr, ptr %27, align 8
  tail call void @llvm.memset.p0.i64(ptr noundef nonnull align 8 dereferenceable(24) %22, i8 0, i64 24, i1 false)
  store i32 %24, ptr %22, align 8
  %29 = icmp eq i32 %26, 0
  br i1 %29, label %copy_address.exit, label %30

30:                                               ; preds = %21
  %31 = sext i32 %26 to i64
  %32 = tail call noalias ptr @wmem_memdup(ptr noundef null, ptr noundef %28, i64 noundef %31) #18
  %33 = getelementptr inbounds nuw i8, ptr %0, i64 32
  store ptr %32, ptr %33, align 8
  %34 = getelementptr inbounds nuw i8, ptr %0, i64 24
  store ptr %32, ptr %34, align 8
  %35 = getelementptr inbounds nuw i8, ptr %0, i64 20
  store i32 %26, ptr %35, align 4
  br label %copy_address.exit

copy_address.exit:                                ; preds = %30, %21, %17
  ret ptr %0
}